target datalayout = "e-m:e-p270:32:32-p271:32:32-p272:64:64-i64:64-i128:128-f80:128-n8:16:32:64-S128"
target triple = "x86_64-pc-linux-gnu"

; Function Attrs: nounwind uwtable
define dso_local void @add_display_treestore_line(i32 noundef %0, ptr noundef %1, ptr noundef %2, ptr noundef %3, ptr noundef %4) #0 {
  %6 = alloca i32, align 4
  %7 = alloca ptr, align 8
  %8 = alloca ptr, align 8
  %9 = alloca ptr, align 8
  %10 = alloca ptr, align 8
  %11 = alloca ptr, align 8
  %12 = alloca ptr, align 8
  %13 = alloca i32, align 4
  store i32 %0, ptr %6, align 4
  store ptr %1, ptr %7, align 8
  store ptr %2, ptr %8, align 8
  store ptr %3, ptr %9, align 8
  store ptr %4, ptr %10, align 8
  %14 = load ptr, ptr %9, align 8
  %15 = icmp ne ptr %14, null
  br i1 %15, label %17, label %16

16:                                               ; preds = %5
  br label %61

17:                                               ; preds = %5
  %18 = load i32, ptr %6, align 4
  %19 = icmp ne i32 %18, 0
  br i1 %19, label %20, label %52

20:                                               ; preds = %17
  call void @llvm.lifetime.start.p0(i64 8, ptr %11) #11
  store ptr null, ptr %11, align 8
  call void @llvm.lifetime.start.p0(i64 8, ptr %12) #11
  %21 = call ptr @gtk_tree_path_new_first()
  store ptr %21, ptr %12, align 8
  %22 = load ptr, ptr %7, align 8
  %23 = call i64 @gtk_tree_model_get_type() #12
  %24 = call ptr @g_type_check_instance_cast(ptr noundef %22, i64 noundef %23)
  %25 = load ptr, ptr %8, align 8
  %26 = load ptr, ptr %12, align 8
  %27 = call i32 @gtk_tree_model_get_iter(ptr noundef %24, ptr noundef %25, ptr noundef %26)
  br label %28

28:                                               ; preds = %49, %20
  br label %29

29:                                               ; preds = %28
  %30 = load ptr, ptr %7, align 8
  %31 = call i64 @gtk_tree_model_get_type() #12
  %32 = call ptr @g_type_check_instance_cast(ptr noundef %30, i64 noundef %31)
  %33 = load ptr, ptr %8, align 8
  call void (ptr, ptr, ...) @gtk_tree_model_get(ptr noundef %32, ptr noundef %33, i32 noundef 0, ptr noundef %11, i32 noundef -1)
  %34 = load ptr, ptr %11, align 8
  %35 = load ptr, ptr %9, align 8
  %36 = call i32 @xstrcmp(ptr noundef %34, ptr noundef %35)
  %37 = icmp ne i32 %36, 0
  br i1 %37, label %40, label %38

38:                                               ; preds = %29
  %39 = load ptr, ptr %11, align 8
  call void @g_free(ptr noundef %39)
  store i32 4, ptr %13, align 4
  br label %50

40:                                               ; preds = %29
  %41 = load ptr, ptr %11, align 8
  call void @g_free(ptr noundef %41)
  %42 = load ptr, ptr %7, align 8
  %43 = call i64 @gtk_tree_model_get_type() #12
  %44 = call ptr @g_type_check_instance_cast(ptr noundef %42, i64 noundef %43)
  %45 = load ptr, ptr %8, align 8
  %46 = call i32 @gtk_tree_model_iter_next(ptr noundef %44, ptr noundef %45)
  %47 = icmp ne i32 %46, 0
  br i1 %47, label %49, label %48

48:                                               ; preds = %40
  store i32 1, ptr %13, align 4
  br label %50

49:                                               ; preds = %40
  br label %28, !llvm.loop !50

50:                                               ; preds = %38, %48
  call void @llvm.lifetime.end.p0(i64 8, ptr %12) #11
  call void @llvm.lifetime.end.p0(i64 8, ptr %11) #11
  %51 = load i32, ptr %13, align 4
  switch i32 %51, label %62 [
    i32 1, label %61
    i32 4, label %56
  ]

52:                                               ; preds = %17
  %53 = load ptr, ptr %7, align 8
  %54 = load ptr, ptr %8, align 8
  call void @gtk_tree_store_append(ptr noundef %53, ptr noundef %54, ptr noundef null)
  br label %55

55:                                               ; preds = %52
  br label %56

56:                                               ; preds = %55, %50
  %57 = load ptr, ptr %7, align 8
  %58 = load ptr, ptr %8, align 8
  %59 = load ptr, ptr %9, align 8
  %60 = load ptr, ptr %10, align 8
  call void (ptr, ptr, ...) @gtk_tree_store_set(ptr noundef %57, ptr noundef %58, i32 noundef 0, ptr noundef %59, i32 noundef 1, ptr noundef %60, i32 noundef -1)
  br label %61

61:                                               ; preds = %56, %50, %16
  ret void

62:                                               ; preds = %50
  unreachable
}