; Function Attrs: nounwind uwtable
define dso_local void @add_display_treestore_line(i32 noundef %0, ptr noundef %1, ptr noundef %2, ptr noundef %3, ptr noundef %4) local_unnamed_addr #2 {
  %6 = alloca ptr, align 8
  %.not = icmp eq ptr %3, null
  br i1 %.not, label %24, label %7

7:                                                ; preds = %5
  %.not17 = icmp eq i32 %0, 0
  br i1 %.not17, label %22, label %8

8:                                                ; preds = %7
  call void @llvm.lifetime.start.p0(i64 8, ptr nonnull %6) #16
  store ptr null, ptr %6, align 8
  %9 = tail call ptr @gtk_tree_path_new_first() #16
  %10 = tail call i64 @gtk_tree_model_get_type() #17
  %11 = tail call ptr @g_type_check_instance_cast(ptr noundef %1, i64 noundef %10) #16
  %12 = tail call i32 @gtk_tree_model_get_iter(ptr noundef %11, ptr noundef %2, ptr noundef %9) #16
  br label %13

13:                                               ; preds = %18, %8
  %14 = call ptr @g_type_check_instance_cast(ptr noundef %1, i64 noundef %10) #16
  call void (ptr, ptr, ...) @gtk_tree_model_get(ptr noundef %14, ptr noundef %2, i32 noundef 0, ptr noundef nonnull %6, i32 noundef -1) #16
  %15 = load ptr, ptr %6, align 8
  %16 = call i32 @xstrcmp(ptr noundef %15, ptr noundef nonnull %3) #16
  %.not18 = icmp eq i32 %16, 0
  %17 = load ptr, ptr %6, align 8
  call void @g_free(ptr noundef %17) #16
  br i1 %.not18, label %21, label %18

18:                                               ; preds = %13
  %19 = call ptr @g_type_check_instance_cast(ptr noundef %1, i64 noundef %10) #16
  %20 = call i32 @gtk_tree_model_iter_next(ptr noundef %19, ptr noundef %2) #16
  %.not19 = icmp eq i32 %20, 0
  br i1 %.not19, label %.thread, label %13, !llvm.loop !48

.thread:                                          ; preds = %18
  call void @llvm.lifetime.end.p0(i64 8, ptr nonnull %6) #16
  br label %24

21:                                               ; preds = %13
  call void @llvm.lifetime.end.p0(i64 8, ptr nonnull %6) #16
  br label %23

22:                                               ; preds = %7
  tail call void @gtk_tree_store_append(ptr noundef %1, ptr noundef %2, ptr noundef null) #16
  br label %23

23:                                               ; preds = %21, %22
  call void (ptr, ptr, ...) @gtk_tree_store_set(ptr noundef %1, ptr noundef %2, i32 noundef 0, ptr noundef nonnull %3, i32 noundef 1, ptr noundef %4, i32 noundef -1) #16
  br label %24

24:                                               ; preds = %.thread, %5, %23
  ret void
}